target datalayout = "e-m:e-p270:32:32-p271:32:32-p272:64:64-i64:64-i128:128-f80:128-n8:16:32:64-S128"
target triple = "x86_64-pc-linux-gnu"

%"class.std::__cxx11::basic_string" = type { %"struct.std::__cxx11::basic_string<char>::_Alloc_hider", i64, %union.anon }
%"struct.std::__cxx11::basic_string<char>::_Alloc_hider" = type { ptr }
%union.anon = type { i64, [8 x i8] }
%"class.mu::ParserError" = type { %"class.std::__cxx11::basic_string", %"class.std::__cxx11::basic_string", %"class.std::__cxx11::basic_string", i32, i32, ptr }
%class.ParserTag = type { ptr, %"class.mu::ParserError", ptr, i8, i32 }

@_ZTIN2mu11ParserErrorE = linkonce_odr constant { ptr, ptr } { ptr getelementptr inbounds (ptr, ptr @_ZTVN10__cxxabiv117__class_type_infoE, i64 2), ptr @_ZTSN2mu11ParserErrorE }, comdat, align 8

; Function Attrs: inlinehint mustprogress nounwind uwtable
define linkonce_odr noundef ptr @_Z8AsParserPv(ptr noundef %0) #10 comdat {
  %2 = alloca ptr, align 8
  store ptr %0, ptr %2, align 8, !tbaa !32
  %3 = load ptr, ptr %2, align 8, !tbaa !32
  %4 = getelementptr inbounds nuw %class.ParserTag, ptr %3, i32 0, i32 0
  %5 = load ptr, ptr %4, align 8, !tbaa !47
  ret ptr %5
}

; Function Attrs: mustprogress uwtable
define void @mupResetLocale(ptr noundef %0) #6 personality ptr @__gxx_personality_v0 {
  %2 = alloca ptr, align 8
  %3 = alloca ptr, align 8
  %4 = alloca ptr, align 8
  %5 = alloca i32, align 4
  %6 = alloca ptr, align 8
  %7 = alloca %"class.mu::ParserError", align 8
  %8 = alloca ptr, align 8
  %9 = alloca ptr, align 8
  store ptr %0, ptr %2, align 8, !tbaa !32
  call void @llvm.lifetime.start.p0(i64 8, ptr %3) #3
  %10 = load ptr, ptr %2, align 8, !tbaa !32
  %11 = call noundef ptr @_Z8AsParserPv(ptr noundef %10)
  store ptr %11, ptr %3, align 8, !tbaa !33
  %12 = load ptr, ptr %3, align 8, !tbaa !33
  invoke void @_ZN2mu10ParserBase11ResetLocaleEv(ptr noundef nonnull align 8 dereferenceable(596) %12)
          to label %13 unwind label %14

13:                                               ; preds = %1
  call void @llvm.lifetime.end.p0(i64 8, ptr %3) #3
  br label %85

14:                                               ; preds = %1
  %15 = landingpad { ptr, i32 }
          catch ptr @_ZTIN2mu11ParserErrorE
          catch ptr null
  %16 = extractvalue { ptr, i32 } %15, 0
  store ptr %16, ptr %4, align 8
  %17 = extractvalue { ptr, i32 } %15, 1
  store i32 %17, ptr %5, align 4
  call void @llvm.lifetime.end.p0(i64 8, ptr %3) #3
  br label %18

18:                                               ; preds = %14
  %19 = load i32, ptr %5, align 4
  %20 = call i32 @llvm.eh.typeid.for.p0(ptr @_ZTIN2mu11ParserErrorE) #3
  %21 = icmp eq i32 %19, %20
  br i1 %21, label %22, label %43

22:                                               ; preds = %18
  call void @llvm.lifetime.start.p0(i64 8, ptr %8) #3
  %23 = load ptr, ptr %4, align 8
  %24 = call ptr @__cxa_begin_catch(ptr %23) #3
  store ptr %24, ptr %8, align 8
  call void @llvm.lifetime.start.p0(i64 8, ptr %9) #3
  %25 = load ptr, ptr %2, align 8, !tbaa !32
  store ptr %25, ptr %9, align 8, !tbaa !35
  %26 = load ptr, ptr %8, align 8, !tbaa !37
  %27 = load ptr, ptr %9, align 8, !tbaa !35
  %28 = getelementptr inbounds nuw %class.ParserTag, ptr %27, i32 0, i32 1
  %29 = invoke noundef nonnull align 8 dereferenceable(112) ptr @_ZN2mu11ParserErroraSERKS0_(ptr noundef nonnull align 8 dereferenceable(112) %28, ptr noundef nonnull align 8 dereferenceable(112) %26)
          to label %30 unwind label %80

30:                                               ; preds = %22
  %31 = load ptr, ptr %9, align 8, !tbaa !35
  %32 = getelementptr inbounds nuw %class.ParserTag, ptr %31, i32 0, i32 3
  store i8 1, ptr %32, align 8, !tbaa !39
  %33 = load ptr, ptr %9, align 8, !tbaa !35
  %34 = getelementptr inbounds nuw %class.ParserTag, ptr %33, i32 0, i32 2
  %35 = load ptr, ptr %34, align 8, !tbaa !46
  %36 = icmp ne ptr %35, null
  br i1 %36, label %37, label %84

37:                                               ; preds = %30
  %38 = load ptr, ptr %9, align 8, !tbaa !35
  %39 = getelementptr inbounds nuw %class.ParserTag, ptr %38, i32 0, i32 2
  %40 = load ptr, ptr %39, align 8, !tbaa !46
  %41 = load ptr, ptr %2, align 8, !tbaa !32
  invoke void %40(ptr noundef %41)
          to label %42 unwind label %80

42:                                               ; preds = %37
  br label %84

43:                                               ; preds = %18
  %44 = load ptr, ptr %4, align 8
  %45 = call ptr @__cxa_begin_catch(ptr %44) #3
  call void @llvm.lifetime.start.p0(i64 8, ptr %6) #3
  %46 = load ptr, ptr %2, align 8, !tbaa !32
  store ptr %46, ptr %6, align 8, !tbaa !35
  call void @llvm.lifetime.start.p0(i64 112, ptr %7) #3
  invoke void @_ZN2mu11ParserErrorC1ENS_11EErrorCodesE(ptr noundef nonnull align 8 dereferenceable(112) %7, i32 noundef 39)
          to label %47 unwind label %64

47:                                               ; preds = %43
  %48 = load ptr, ptr %6, align 8, !tbaa !35
  %49 = getelementptr inbounds nuw %class.ParserTag, ptr %48, i32 0, i32 1
  %50 = invoke noundef nonnull align 8 dereferenceable(112) ptr @_ZN2mu11ParserErroraSERKS0_(ptr noundef nonnull align 8 dereferenceable(112) %49, ptr noundef nonnull align 8 dereferenceable(112) %7)
          to label %51 unwind label %68

51:                                               ; preds = %47
  call void @_ZN2mu11ParserErrorD1Ev(ptr noundef nonnull align 8 dereferenceable(112) %7) #3
  call void @llvm.lifetime.end.p0(i64 112, ptr %7) #3
  %52 = load ptr, ptr %6, align 8, !tbaa !35
  %53 = getelementptr inbounds nuw %class.ParserTag, ptr %52, i32 0, i32 3
  store i8 1, ptr %53, align 8, !tbaa !39
  %54 = load ptr, ptr %6, align 8, !tbaa !35
  %55 = getelementptr inbounds nuw %class.ParserTag, ptr %54, i32 0, i32 2
  %56 = load ptr, ptr %55, align 8, !tbaa !46
  %57 = icmp ne ptr %56, null
  br i1 %57, label %58, label %77

58:                                               ; preds = %51
  %59 = load ptr, ptr %6, align 8, !tbaa !35
  %60 = getelementptr inbounds nuw %class.ParserTag, ptr %59, i32 0, i32 2
  %61 = load ptr, ptr %60, align 8, !tbaa !46
  %62 = load ptr, ptr %2, align 8, !tbaa !32
  invoke void %61(ptr noundef %62)
          to label %63 unwind label %73

63:                                               ; preds = %58
  br label %77

64:                                               ; preds = %43
  %65 = landingpad { ptr, i32 }
          cleanup
  %66 = extractvalue { ptr, i32 } %65, 0
  store ptr %66, ptr %4, align 8
  %67 = extractvalue { ptr, i32 } %65, 1
  store i32 %67, ptr %5, align 4
  br label %72

68:                                               ; preds = %47
  %69 = landingpad { ptr, i32 }
          cleanup
  %70 = extractvalue { ptr, i32 } %69, 0
  store ptr %70, ptr %4, align 8
  %71 = extractvalue { ptr, i32 } %69, 1
  store i32 %71, ptr %5, align 4
  call void @_ZN2mu11ParserErrorD1Ev(ptr noundef nonnull align 8 dereferenceable(112) %7) #3
  br label %72

72:                                               ; preds = %68, %64
  call void @llvm.lifetime.end.p0(i64 112, ptr %7) #3
  br label %78

73:                                               ; preds = %58
  %74 = landingpad { ptr, i32 }
          cleanup
  %75 = extractvalue { ptr, i32 } %74, 0
  store ptr %75, ptr %4, align 8
  %76 = extractvalue { ptr, i32 } %74, 1
  store i32 %76, ptr %5, align 4
  br label %78

77:                                               ; preds = %63, %51
  call void @llvm.lifetime.end.p0(i64 8, ptr %6) #3
  call void @__cxa_end_catch()
  br label %85

78:                                               ; preds = %73, %72
  call void @llvm.lifetime.end.p0(i64 8, ptr %6) #3
  invoke void @__cxa_end_catch()
          to label %79 unwind label %92

79:                                               ; preds = %78
  br label %87

80:                                               ; preds = %37, %22
  %81 = landingpad { ptr, i32 }
          cleanup
  %82 = extractvalue { ptr, i32 } %81, 0
  store ptr %82, ptr %4, align 8
  %83 = extractvalue { ptr, i32 } %81, 1
  store i32 %83, ptr %5, align 4
  call void @llvm.lifetime.end.p0(i64 8, ptr %9) #3
  invoke void @__cxa_end_catch()
          to label %86 unwind label %92

84:                                               ; preds = %42, %30
  call void @llvm.lifetime.end.p0(i64 8, ptr %9) #3
  call void @__cxa_end_catch()
  call void @llvm.lifetime.end.p0(i64 8, ptr %8) #3
  br label %85

85:                                               ; preds = %84, %77, %13
  ret void

86:                                               ; preds = %80
  call void @llvm.lifetime.end.p0(i64 8, ptr %8) #3
  br label %87

87:                                               ; preds = %86, %79
  %88 = load ptr, ptr %4, align 8
  %89 = load i32, ptr %5, align 4
  %90 = insertvalue { ptr, i32 } poison, ptr %88, 0
  %91 = insertvalue { ptr, i32 } %90, i32 %89, 1
  resume { ptr, i32 } %91

92:                                               ; preds = %80, %78
  %93 = landingpad { ptr, i32 }
          catch ptr null
  %94 = extractvalue { ptr, i32 } %93, 0
  call void @__clang_call_terminate(ptr %94) #19
  unreachable
}